#include <math.h>
#include <stdio.h>
#include <stdlib.h>
#include <string.h>


int main()
{
	int n,i,num[301],out[301]={0},j=0,p,q,temp;
	double sum=0,avr,dif[301],max=0;
	scanf("%d",&n);
	for(i=0;i<n;i++){
		scanf("%d",&num[i]);
		sum+=num[i];
	}
	avr=sum/i;
	for(i=0;i<n;i++){
		dif[i]=fabs(num[i]-avr);
		if(dif[i]>max){
			int out[301]={0};
			j=0;
			max=dif[i];
		}
		if(dif[i]==max){
			out[j]=num[i];
			j++;
		}
	}
	for(p=0;p<j-1;p++){
		for(q=j-1;q>p;q--){
			if(out[q]<out[q-1]){
				temp=out[q];
				out[q]=out[q-1];
				out[q-1]=temp;
			}
		}
	}
	for(i=0;i<j;i++){
		if(i==j-1)
			printf("%d\n",out[i]);
		else printf("%d,",out[i]);
	}
	return 0;
}