; ModuleID = '21/1533.c'
source_filename = "21/1533.c"
target datalayout = "e-m:e-p270:32:32-p271:32:32-p272:64:64-i64:64-f80:128-n8:16:32:64-S128"
target triple = "x86_64-pc-linux-gnu"

@.str = private unnamed_addr constant [3 x i8] c"%d\00", align 1
@.str.1 = private unnamed_addr constant [4 x i8] c"%d\0A\00", align 1
@.str.2 = private unnamed_addr constant [4 x i8] c"%d,\00", align 1

; Function Attrs: noinline nounwind uwtable
define dso_local i32 @main() #0 {
  %1 = alloca i32, align 4
  %2 = alloca i32, align 4
  %3 = alloca i32, align 4
  %4 = alloca [301 x i32], align 16
  %5 = alloca [301 x i32], align 16
  %6 = alloca i32, align 4
  %7 = alloca i32, align 4
  %8 = alloca i32, align 4
  %9 = alloca i32, align 4
  %10 = alloca double, align 8
  %11 = alloca double, align 8
  %12 = alloca [301 x double], align 16
  %13 = alloca double, align 8
  %14 = alloca [301 x i32], align 16
  store i32 0, i32* %1, align 4
  %15 = bitcast [301 x i32]* %5 to i8*
  call void @llvm.memset.p0i8.i64(i8* align 16 %15, i8 0, i64 1204, i1 false)
  store i32 0, i32* %6, align 4
  store double 0.000000e+00, double* %10, align 8
  store double 0.000000e+00, double* %13, align 8
  %16 = call i32 (i8*, ...) @__isoc99_scanf(i8* getelementptr inbounds ([3 x i8], [3 x i8]* @.str, i64 0, i64 0), i32* %2)
  store i32 0, i32* %3, align 4
  br label %17

17:                                               ; preds = %33, %0
  %18 = load i32, i32* %3, align 4
  %19 = load i32, i32* %2, align 4
  %20 = icmp slt i32 %18, %19
  br i1 %20, label %21, label %36

21:                                               ; preds = %17
  %22 = load i32, i32* %3, align 4
  %23 = sext i32 %22 to i64
  %24 = getelementptr inbounds [301 x i32], [301 x i32]* %4, i64 0, i64 %23
  %25 = call i32 (i8*, ...) @__isoc99_scanf(i8* getelementptr inbounds ([3 x i8], [3 x i8]* @.str, i64 0, i64 0), i32* %24)
  %26 = load i32, i32* %3, align 4
  %27 = sext i32 %26 to i64
  %28 = getelementptr inbounds [301 x i32], [301 x i32]* %4, i64 0, i64 %27
  %29 = load i32, i32* %28, align 4
  %30 = sitofp i32 %29 to double
  %31 = load double, double* %10, align 8
  %32 = fadd double %31, %30
  store double %32, double* %10, align 8
  br label %33

33:                                               ; preds = %21
  %34 = load i32, i32* %3, align 4
  %35 = add nsw i32 %34, 1
  store i32 %35, i32* %3, align 4
  br label %17

36:                                               ; preds = %17
  %37 = load double, double* %10, align 8
  %38 = load i32, i32* %3, align 4
  %39 = sitofp i32 %38 to double
  %40 = fdiv double %37, %39
  store double %40, double* %11, align 8
  store i32 0, i32* %3, align 4
  br label %41

41:                                               ; preds = %87, %36
  %42 = load i32, i32* %3, align 4
  %43 = load i32, i32* %2, align 4
  %44 = icmp slt i32 %42, %43
  br i1 %44, label %45, label %90

45:                                               ; preds = %41
  %46 = load i32, i32* %3, align 4
  %47 = sext i32 %46 to i64
  %48 = getelementptr inbounds [301 x i32], [301 x i32]* %4, i64 0, i64 %47
  %49 = load i32, i32* %48, align 4
  %50 = sitofp i32 %49 to double
  %51 = load double, double* %11, align 8
  %52 = fsub double %50, %51
  %53 = call double @llvm.fabs.f64(double %52)
  %54 = load i32, i32* %3, align 4
  %55 = sext i32 %54 to i64
  %56 = getelementptr inbounds [301 x double], [301 x double]* %12, i64 0, i64 %55
  store double %53, double* %56, align 8
  %57 = load i32, i32* %3, align 4
  %58 = sext i32 %57 to i64
  %59 = getelementptr inbounds [301 x double], [301 x double]* %12, i64 0, i64 %58
  %60 = load double, double* %59, align 8
  %61 = load double, double* %13, align 8
  %62 = fcmp ogt double %60, %61
  br i1 %62, label %63, label %69

63:                                               ; preds = %45
  %64 = bitcast [301 x i32]* %14 to i8*
  call void @llvm.memset.p0i8.i64(i8* align 16 %64, i8 0, i64 1204, i1 false)
  store i32 0, i32* %6, align 4
  %65 = load i32, i32* %3, align 4
  %66 = sext i32 %65 to i64
  %67 = getelementptr inbounds [301 x double], [301 x double]* %12, i64 0, i64 %66
  %68 = load double, double* %67, align 8
  store double %68, double* %13, align 8
  br label %69

69:                                               ; preds = %63, %45
  %70 = load i32, i32* %3, align 4
  %71 = sext i32 %70 to i64
  %72 = getelementptr inbounds [301 x double], [301 x double]* %12, i64 0, i64 %71
  %73 = load double, double* %72, align 8
  %74 = load double, double* %13, align 8
  %75 = fcmp oeq double %73, %74
  br i1 %75, label %76, label %86

76:                                               ; preds = %69
  %77 = load i32, i32* %3, align 4
  %78 = sext i32 %77 to i64
  %79 = getelementptr inbounds [301 x i32], [301 x i32]* %4, i64 0, i64 %78
  %80 = load i32, i32* %79, align 4
  %81 = load i32, i32* %6, align 4
  %82 = sext i32 %81 to i64
  %83 = getelementptr inbounds [301 x i32], [301 x i32]* %5, i64 0, i64 %82
  store i32 %80, i32* %83, align 4
  %84 = load i32, i32* %6, align 4
  %85 = add nsw i32 %84, 1
  store i32 %85, i32* %6, align 4
  br label %86

86:                                               ; preds = %76, %69
  br label %87

87:                                               ; preds = %86
  %88 = load i32, i32* %3, align 4
  %89 = add nsw i32 %88, 1
  store i32 %89, i32* %3, align 4
  br label %41

90:                                               ; preds = %41
  store i32 0, i32* %7, align 4
  br label %91

91:                                               ; preds = %137, %90
  %92 = load i32, i32* %7, align 4
  %93 = load i32, i32* %6, align 4
  %94 = sub nsw i32 %93, 1
  %95 = icmp slt i32 %92, %94
  br i1 %95, label %96, label %140

96:                                               ; preds = %91
  %97 = load i32, i32* %6, align 4
  %98 = sub nsw i32 %97, 1
  store i32 %98, i32* %8, align 4
  br label %99

99:                                               ; preds = %133, %96
  %100 = load i32, i32* %8, align 4
  %101 = load i32, i32* %7, align 4
  %102 = icmp sgt i32 %100, %101
  br i1 %102, label %103, label %136

103:                                              ; preds = %99
  %104 = load i32, i32* %8, align 4
  %105 = sext i32 %104 to i64
  %106 = getelementptr inbounds [301 x i32], [301 x i32]* %5, i64 0, i64 %105
  %107 = load i32, i32* %106, align 4
  %108 = load i32, i32* %8, align 4
  %109 = sub nsw i32 %108, 1
  %110 = sext i32 %109 to i64
  %111 = getelementptr inbounds [301 x i32], [301 x i32]* %5, i64 0, i64 %110
  %112 = load i32, i32* %111, align 4
  %113 = icmp slt i32 %107, %112
  br i1 %113, label %114, label %132

114:                                              ; preds = %103
  %115 = load i32, i32* %8, align 4
  %116 = sext i32 %115 to i64
  %117 = getelementptr inbounds [301 x i32], [301 x i32]* %5, i64 0, i64 %116
  %118 = load i32, i32* %117, align 4
  store i32 %118, i32* %9, align 4
  %119 = load i32, i32* %8, align 4
  %120 = sub nsw i32 %119, 1
  %121 = sext i32 %120 to i64
  %122 = getelementptr inbounds [301 x i32], [301 x i32]* %5, i64 0, i64 %121
  %123 = load i32, i32* %122, align 4
  %124 = load i32, i32* %8, align 4
  %125 = sext i32 %124 to i64
  %126 = getelementptr inbounds [301 x i32], [301 x i32]* %5, i64 0, i64 %125
  store i32 %123, i32* %126, align 4
  %127 = load i32, i32* %9, align 4
  %128 = load i32, i32* %8, align 4
  %129 = sub nsw i32 %128, 1
  %130 = sext i32 %129 to i64
  %131 = getelementptr inbounds [301 x i32], [301 x i32]* %5, i64 0, i64 %130
  store i32 %127, i32* %131, align 4
  br label %132

132:                                              ; preds = %114, %103
  br label %133

133:                                              ; preds = %132
  %134 = load i32, i32* %8, align 4
  %135 = add nsw i32 %134, -1
  store i32 %135, i32* %8, align 4
  br label %99

136:                                              ; preds = %99
  br label %137

137:                                              ; preds = %136
  %138 = load i32, i32* %7, align 4
  %139 = add nsw i32 %138, 1
  store i32 %139, i32* %7, align 4
  br label %91

140:                                              ; preds = %91
  store i32 0, i32* %3, align 4
  br label %141

141:                                              ; preds = %163, %140
  %142 = load i32, i32* %3, align 4
  %143 = load i32, i32* %6, align 4
  %144 = icmp slt i32 %142, %143
  br i1 %144, label %145, label %166

145:                                              ; preds = %141
  %146 = load i32, i32* %3, align 4
  %147 = load i32, i32* %6, align 4
  %148 = sub nsw i32 %147, 1
  %149 = icmp eq i32 %146, %148
  br i1 %149, label %150, label %156

150:                                              ; preds = %145
  %151 = load i32, i32* %3, align 4
  %152 = sext i32 %151 to i64
  %153 = getelementptr inbounds [301 x i32], [301 x i32]* %5, i64 0, i64 %152
  %154 = load i32, i32* %153, align 4
  %155 = call i32 (i8*, ...) @printf(i8* getelementptr inbounds ([4 x i8], [4 x i8]* @.str.1, i64 0, i64 0), i32 %154)
  br label %162

156:                                              ; preds = %145
  %157 = load i32, i32* %3, align 4
  %158 = sext i32 %157 to i64
  %159 = getelementptr inbounds [301 x i32], [301 x i32]* %5, i64 0, i64 %158
  %160 = load i32, i32* %159, align 4
  %161 = call i32 (i8*, ...) @printf(i8* getelementptr inbounds ([4 x i8], [4 x i8]* @.str.2, i64 0, i64 0), i32 %160)
  br label %162

162:                                              ; preds = %156, %150
  br label %163

163:                                              ; preds = %162
  %164 = load i32, i32* %3, align 4
  %165 = add nsw i32 %164, 1
  store i32 %165, i32* %3, align 4
  br label %141

166:                                              ; preds = %141
  ret i32 0
}

; Function Attrs: argmemonly nounwind willreturn
declare void @llvm.memset.p0i8.i64(i8* nocapture writeonly, i8, i64, i1 immarg) #1

declare dso_local i32 @__isoc99_scanf(i8*, ...) #2

; Function Attrs: nounwind readnone speculatable willreturn
declare double @llvm.fabs.f64(double) #3

declare dso_local i32 @printf(i8*, ...) #2


!llvm.module.flags = !{!0}
!llvm.ident = !{!1}

!0 = !{i32 1, !"wchar_size", i32 4}
!1 = !{!"clang version 10.0.0-4ubuntu1 "}
